(dp0
S'engine'
p1
S'xelatex'
p2
sS'packages'
p3
c__builtin__
set
p4
((lp5
S'hyperref'
p6
aS'titlesec'
p7
aS'fontspec'
p8
aS'multirow'
p9
aS'fontenc'
p10
aS'graphicx'
p11
atp12
Rp13
sS'files_with_guttermarks'
p14
g4
((lp15
S'project report.tex'
p16
aS'/Users/kunal/Developer/tennis/LaTeX/project report/project report.tex'
p17
aS'/Users/kunal/Developer/tennis/LaTeX/project report/./project report.tex'
p18
atp19
Rp20
sS'synctex'
p21
I01
s.