(dp0
S'engine'
p1
S'latex'
p2
sS'packages'
p3
c__builtin__
set
p4
((lp5
S'hyperref'
p6
aS'epsfig'
p7
aS'amsmath'
p8
aS'times'
p9
aS'cvpr'
p10
aS'graphicx'
p11
aS'amssymb'
p12
atp13
Rp14
sS'files_with_guttermarks'
p15
g4
((lp16
S'project_report_template_latex.tex'
p17
aS'/Users/kunal/Developer/tennis/LaTeX/project report/project_report_template_latex.tex'
p18
atp19
Rp20
sS'synctex'
p21
I01
s.