(dp0
S'engine'
p1
S'xelatex'
p2
sS'packages'
p3
c__builtin__
set
p4
((lp5
S'hyperref'
p6
aS'fontspec'
p7
aS'graphicx'
p8
aS'titlesec'
p9
aS'fontenc'
p10
atp11
Rp12
sS'files_with_guttermarks'
p13
g4
((lp14
S'project report.tex'
p15
aS'/Users/kunal/Developer/tennis/LaTeX/project report/project report.tex'
p16
aS'/Users/kunal/Developer/tennis/LaTeX/project report/./project report.tex'
p17
atp18
Rp19
sS'synctex'
p20
I01
s.